target datalayout = "e-m:e-p270:32:32-p271:32:32-p272:64:64-i64:64-i128:128-f80:128-n8:16:32:64-S128"
target triple = "x86_64-pc-linux-gnu"

%"class.Assimp::ColladaLoader" = type <{ %"class.Assimp::BaseImporter", %"class.std::__cxx11::basic_string", %"class.std::map", %"class.std::map.6", %"class.std::vector", %"class.std::vector", %"class.std::vector.15", %"class.std::vector.20", %"class.std::vector.25", %"class.std::vector.30", %"class.std::vector.35", i8, i8, i8, i8, i8, [3 x i8], i32, [4 x i8] }>
%"class.Assimp::BaseImporter" = type { ptr, double, double, %"class.std::__cxx11::basic_string", %"class.std::__exception_ptr::exception_ptr", ptr }
%"class.std::__exception_ptr::exception_ptr" = type { ptr }
%"class.std::__cxx11::basic_string" = type { %"struct.std::__cxx11::basic_string<char>::_Alloc_hider", i64, %union.anon }
%"struct.std::__cxx11::basic_string<char>::_Alloc_hider" = type { ptr }
%union.anon = type { i64, [8 x i8] }
%"class.std::map" = type { %"class.std::_Rb_tree" }
%"class.std::_Rb_tree" = type { %"struct.std::_Rb_tree<Assimp::ColladaMeshIndex, std::pair<const Assimp::ColladaMeshIndex, unsigned long>, std::_Select1st<std::pair<const Assimp::ColladaMeshIndex, unsigned long>>, std::less<Assimp::ColladaMeshIndex>>::_Rb_tree_impl" }
%"struct.std::_Rb_tree<Assimp::ColladaMeshIndex, std::pair<const Assimp::ColladaMeshIndex, unsigned long>, std::_Select1st<std::pair<const Assimp::ColladaMeshIndex, unsigned long>>, std::less<Assimp::ColladaMeshIndex>>::_Rb_tree_impl" = type { [8 x i8], %"struct.std::_Rb_tree_header" }
%"struct.std::_Rb_tree_header" = type { %"struct.std::_Rb_tree_node_base", i64 }
%"struct.std::_Rb_tree_node_base" = type { i32, ptr, ptr, ptr }
%"class.std::map.6" = type { %"class.std::_Rb_tree.7" }
%"class.std::_Rb_tree.7" = type { %"struct.std::_Rb_tree<std::__cxx11::basic_string<char>, std::pair<const std::__cxx11::basic_string<char>, unsigned long>, std::_Select1st<std::pair<const std::__cxx11::basic_string<char>, unsigned long>>, std::less<std::__cxx11::basic_string<char>>>::_Rb_tree_impl" }
%"struct.std::_Rb_tree<std::__cxx11::basic_string<char>, std::pair<const std::__cxx11::basic_string<char>, unsigned long>, std::_Select1st<std::pair<const std::__cxx11::basic_string<char>, unsigned long>>, std::less<std::__cxx11::basic_string<char>>>::_Rb_tree_impl" = type { [8 x i8], %"struct.std::_Rb_tree_header" }
%"class.std::vector" = type { %"struct.std::_Vector_base" }
%"struct.std::_Vector_base" = type { %"struct.std::_Vector_base<aiMesh *, std::allocator<aiMesh *>>::_Vector_impl" }
%"struct.std::_Vector_base<aiMesh *, std::allocator<aiMesh *>>::_Vector_impl" = type { %"struct.std::_Vector_base<aiMesh *, std::allocator<aiMesh *>>::_Vector_impl_data" }
%"struct.std::_Vector_base<aiMesh *, std::allocator<aiMesh *>>::_Vector_impl_data" = type { ptr, ptr, ptr }
%"class.std::vector.15" = type { %"struct.std::_Vector_base.16" }
%"struct.std::_Vector_base.16" = type { %"struct.std::_Vector_base<std::pair<Assimp::Collada::Effect *, aiMaterial *>, std::allocator<std::pair<Assimp::Collada::Effect *, aiMaterial *>>>::_Vector_impl" }
%"struct.std::_Vector_base<std::pair<Assimp::Collada::Effect *, aiMaterial *>, std::allocator<std::pair<Assimp::Collada::Effect *, aiMaterial *>>>::_Vector_impl" = type { %"struct.std::_Vector_base<std::pair<Assimp::Collada::Effect *, aiMaterial *>, std::allocator<std::pair<Assimp::Collada::Effect *, aiMaterial *>>>::_Vector_impl_data" }
%"struct.std::_Vector_base<std::pair<Assimp::Collada::Effect *, aiMaterial *>, std::allocator<std::pair<Assimp::Collada::Effect *, aiMaterial *>>>::_Vector_impl_data" = type { ptr, ptr, ptr }
%"class.std::vector.20" = type { %"struct.std::_Vector_base.21" }
%"struct.std::_Vector_base.21" = type { %"struct.std::_Vector_base<aiCamera *, std::allocator<aiCamera *>>::_Vector_impl" }
%"struct.std::_Vector_base<aiCamera *, std::allocator<aiCamera *>>::_Vector_impl" = type { %"struct.std::_Vector_base<aiCamera *, std::allocator<aiCamera *>>::_Vector_impl_data" }
%"struct.std::_Vector_base<aiCamera *, std::allocator<aiCamera *>>::_Vector_impl_data" = type { ptr, ptr, ptr }
%"class.std::vector.25" = type { %"struct.std::_Vector_base.26" }
%"struct.std::_Vector_base.26" = type { %"struct.std::_Vector_base<aiLight *, std::allocator<aiLight *>>::_Vector_impl" }
%"struct.std::_Vector_base<aiLight *, std::allocator<aiLight *>>::_Vector_impl" = type { %"struct.std::_Vector_base<aiLight *, std::allocator<aiLight *>>::_Vector_impl_data" }
%"struct.std::_Vector_base<aiLight *, std::allocator<aiLight *>>::_Vector_impl_data" = type { ptr, ptr, ptr }
%"class.std::vector.30" = type { %"struct.std::_Vector_base.31" }
%"struct.std::_Vector_base.31" = type { %"struct.std::_Vector_base<aiTexture *, std::allocator<aiTexture *>>::_Vector_impl" }
%"struct.std::_Vector_base<aiTexture *, std::allocator<aiTexture *>>::_Vector_impl" = type { %"struct.std::_Vector_base<aiTexture *, std::allocator<aiTexture *>>::_Vector_impl_data" }
%"struct.std::_Vector_base<aiTexture *, std::allocator<aiTexture *>>::_Vector_impl_data" = type { ptr, ptr, ptr }
%"class.std::vector.35" = type { %"struct.std::_Vector_base.36" }
%"struct.std::_Vector_base.36" = type { %"struct.std::_Vector_base<aiAnimation *, std::allocator<aiAnimation *>>::_Vector_impl" }
%"struct.std::_Vector_base<aiAnimation *, std::allocator<aiAnimation *>>::_Vector_impl" = type { %"struct.std::_Vector_base<aiAnimation *, std::allocator<aiAnimation *>>::_Vector_impl_data" }
%"struct.std::_Vector_base<aiAnimation *, std::allocator<aiAnimation *>>::_Vector_impl_data" = type { ptr, ptr, ptr }

@.str.2 = private unnamed_addr constant [26 x i8] c"IMPORT_NO_SKELETON_MESHES\00", align 1
@.str.3 = private unnamed_addr constant [36 x i8] c"AI_CONFIG_IMPORT_REMOVE_EMPTY_BONES\00", align 1
@.str.4 = private unnamed_addr constant [35 x i8] c"IMPORT_COLLADA_IGNORE_UP_DIRECTION\00", align 1
@.str.5 = private unnamed_addr constant [32 x i8] c"IMPORT_COLLADA_IGNORE_UNIT_SIZE\00", align 1
@.str.6 = private unnamed_addr constant [33 x i8] c"IMPORT_COLLADA_USE_COLLADA_NAMES\00", align 1

; Function Attrs: mustprogress uwtable
define hidden void @_ZN6Assimp13ColladaLoader15SetupPropertiesEPKNS_8ImporterE(ptr noundef nonnull align 8 dereferenceable(380) %0, ptr noundef %1) unnamed_addr #7 align 2 {
  %3 = alloca ptr, align 8
  %4 = alloca ptr, align 8
  store ptr %0, ptr %3, align 8
  store ptr %1, ptr %4, align 8
  %5 = load ptr, ptr %3, align 8
  %6 = load ptr, ptr %4, align 8
  %7 = call noundef i32 @_ZNK6Assimp8Importer18GetPropertyIntegerEPKci(ptr noundef nonnull align 8 dereferenceable(8) %6, ptr noundef @.str.2, i32 noundef 0)
  %8 = icmp ne i32 %7, 0
  %9 = getelementptr inbounds nuw %"class.Assimp::ColladaLoader", ptr %5, i32 0, i32 11
  %10 = zext i1 %8 to i8
  store i8 %10, ptr %9, align 8
  %11 = load ptr, ptr %4, align 8
  %12 = call noundef i32 @_ZNK6Assimp8Importer18GetPropertyIntegerEPKci(ptr noundef nonnull align 8 dereferenceable(8) %11, ptr noundef @.str.3, i32 noundef 1)
  %13 = icmp ne i32 %12, 0
  %14 = getelementptr inbounds nuw %"class.Assimp::ColladaLoader", ptr %5, i32 0, i32 12
  %15 = zext i1 %13 to i8
  store i8 %15, ptr %14, align 1
  %16 = load ptr, ptr %4, align 8
  %17 = call noundef i32 @_ZNK6Assimp8Importer18GetPropertyIntegerEPKci(ptr noundef nonnull align 8 dereferenceable(8) %16, ptr noundef @.str.4, i32 noundef 0)
  %18 = icmp ne i32 %17, 0
  %19 = getelementptr inbounds nuw %"class.Assimp::ColladaLoader", ptr %5, i32 0, i32 13
  %20 = zext i1 %18 to i8
  store i8 %20, ptr %19, align 2
  %21 = load ptr, ptr %4, align 8
  %22 = call noundef i32 @_ZNK6Assimp8Importer18GetPropertyIntegerEPKci(ptr noundef nonnull align 8 dereferenceable(8) %21, ptr noundef @.str.5, i32 noundef 0)
  %23 = icmp ne i32 %22, 0
  %24 = getelementptr inbounds nuw %"class.Assimp::ColladaLoader", ptr %5, i32 0, i32 14
  %25 = zext i1 %23 to i8
  store i8 %25, ptr %24, align 1
  %26 = load ptr, ptr %4, align 8
  %27 = call noundef i32 @_ZNK6Assimp8Importer18GetPropertyIntegerEPKci(ptr noundef nonnull align 8 dereferenceable(8) %26, ptr noundef @.str.6, i32 noundef 0)
  %28 = icmp ne i32 %27, 0
  %29 = getelementptr inbounds nuw %"class.Assimp::ColladaLoader", ptr %5, i32 0, i32 15
  %30 = zext i1 %28 to i8
  store i8 %30, ptr %29, align 4
  ret void
}