; Function Attrs: mustprogress uwtable
define hidden void @_ZN6Assimp13ColladaLoader15SetupPropertiesEPKNS_8ImporterE(ptr noundef nonnull writeonly align 8 captures(none) dereferenceable(380) initializes((368, 373)) %0, ptr noundef nonnull %1) unnamed_addr #5 align 2 {
  %3 = tail call noundef i32 @_ZNK6Assimp8Importer18GetPropertyIntegerEPKci(ptr noundef nonnull align 8 dereferenceable(8) %1, ptr noundef nonnull @.str.2, i32 noundef 0)
  %4 = icmp ne i32 %3, 0
  %5 = getelementptr inbounds nuw i8, ptr %0, i64 368
  %6 = zext i1 %4 to i8
  store i8 %6, ptr %5, align 8
  %7 = tail call noundef i32 @_ZNK6Assimp8Importer18GetPropertyIntegerEPKci(ptr noundef nonnull align 8 dereferenceable(8) %1, ptr noundef nonnull @.str.3, i32 noundef 1)
  %8 = icmp ne i32 %7, 0
  %9 = getelementptr inbounds nuw i8, ptr %0, i64 369
  %10 = zext i1 %8 to i8
  store i8 %10, ptr %9, align 1
  %11 = tail call noundef i32 @_ZNK6Assimp8Importer18GetPropertyIntegerEPKci(ptr noundef nonnull align 8 dereferenceable(8) %1, ptr noundef nonnull @.str.4, i32 noundef 0)
  %12 = icmp ne i32 %11, 0
  %13 = getelementptr inbounds nuw i8, ptr %0, i64 370
  %14 = zext i1 %12 to i8
  store i8 %14, ptr %13, align 2
  %15 = tail call noundef i32 @_ZNK6Assimp8Importer18GetPropertyIntegerEPKci(ptr noundef nonnull align 8 dereferenceable(8) %1, ptr noundef nonnull @.str.5, i32 noundef 0)
  %16 = icmp ne i32 %15, 0
  %17 = getelementptr inbounds nuw i8, ptr %0, i64 371
  %18 = zext i1 %16 to i8
  store i8 %18, ptr %17, align 1
  %19 = tail call noundef i32 @_ZNK6Assimp8Importer18GetPropertyIntegerEPKci(ptr noundef nonnull align 8 dereferenceable(8) %1, ptr noundef nonnull @.str.6, i32 noundef 0)
  %20 = icmp ne i32 %19, 0
  %21 = getelementptr inbounds nuw i8, ptr %0, i64 372
  %22 = zext i1 %20 to i8
  store i8 %22, ptr %21, align 4
  ret void
}